; Function Attrs: nounwind uwtable
define noalias noundef ptr @Dar_LibReadOuts() local_unnamed_addr #0 {
  %1 = tail call noalias dereferenceable_or_null(16) ptr @malloc(i64 noundef 16) #3
  %2 = getelementptr inbounds nuw i8, ptr %1, i64 4
  store i32 0, ptr %2, align 4, !tbaa !3
  store i32 24772, ptr %1, align 8, !tbaa !10
  %3 = tail call noalias dereferenceable_or_null(99088) ptr @malloc(i64 noundef 99088) #3
  %4 = getelementptr inbounds nuw i8, ptr %1, i64 8
  store ptr %3, ptr %4, align 8, !tbaa !11
  br label %5

thread-pre-split:                                 ; preds = %Vec_IntPush.exit
  %.pr = load i32, ptr %2, align 4, !tbaa !3
  br label %5

5:                                                ; preds = %thread-pre-split, %0
  %6 = phi i32 [ %.pr, %thread-pre-split ], [ 0, %0 ]
  %7 = phi ptr [ %.pre.i6, %thread-pre-split ], [ %3, %0 ]
  %indvars.iv = phi i64 [ %indvars.iv.next, %thread-pre-split ], [ 0, %0 ]
  %8 = getelementptr inbounds nuw [24772 x i32], ptr @s_Data2, i64 0, i64 %indvars.iv
  %9 = load i32, ptr %8, align 4, !tbaa !12
  %10 = load i32, ptr %1, align 8, !tbaa !10
  %11 = icmp eq i32 %6, %10
  br i1 %11, label %12, label %Vec_IntPush.exit

12:                                               ; preds = %5
  %13 = icmp slt i32 %6, 16
  br i1 %13, label %14, label %19

14:                                               ; preds = %12
  %.not9.i.i = icmp eq ptr %7, null
  br i1 %.not9.i.i, label %17, label %15

15:                                               ; preds = %14
  %16 = tail call dereferenceable_or_null(64) ptr @realloc(ptr noundef nonnull %7, i64 noundef 64) #4
  br label %Vec_IntPush.exit.sink.split

17:                                               ; preds = %14
  %18 = tail call noalias dereferenceable_or_null(64) ptr @malloc(i64 noundef 64) #3
  br label %Vec_IntPush.exit.sink.split

19:                                               ; preds = %12
  %20 = shl nuw nsw i32 %6, 1
  %.not9.i9.i = icmp eq ptr %7, null
  %21 = zext nneg i32 %20 to i64
  %22 = shl nuw nsw i64 %21, 2
  br i1 %.not9.i9.i, label %25, label %23

23:                                               ; preds = %19
  %24 = tail call ptr @realloc(ptr noundef nonnull %7, i64 noundef %22) #4
  br label %Vec_IntPush.exit.sink.split

25:                                               ; preds = %19
  %26 = tail call noalias ptr @malloc(i64 noundef %22) #3
  br label %Vec_IntPush.exit.sink.split

Vec_IntPush.exit.sink.split:                      ; preds = %23, %25, %15, %17
  %.sink8 = phi ptr [ %16, %15 ], [ %18, %17 ], [ %24, %23 ], [ %26, %25 ]
  %.sink = phi i32 [ 16, %15 ], [ 16, %17 ], [ %20, %23 ], [ %20, %25 ]
  store ptr %.sink8, ptr %4, align 8, !tbaa !11
  store i32 %.sink, ptr %1, align 8, !tbaa !10
  br label %Vec_IntPush.exit

Vec_IntPush.exit:                                 ; preds = %Vec_IntPush.exit.sink.split, %5
  %.pre.i6 = phi ptr [ %7, %5 ], [ %.sink8, %Vec_IntPush.exit.sink.split ]
  %27 = add nsw i32 %6, 1
  store i32 %27, ptr %2, align 4, !tbaa !3
  %28 = sext i32 %6 to i64
  %29 = getelementptr inbounds i32, ptr %.pre.i6, i64 %28
  store i32 %9, ptr %29, align 4, !tbaa !12
  %indvars.iv.next = add nuw nsw i64 %indvars.iv, 1
  %exitcond.not = icmp eq i64 %indvars.iv.next, 24772
  br i1 %exitcond.not, label %30, label %thread-pre-split, !llvm.loop !15

30:                                               ; preds = %Vec_IntPush.exit
  ret ptr %1
}